target datalayout = "e-m:e-p270:32:32-p271:32:32-p272:64:64-i64:64-i128:128-f80:128-n8:16:32:64-S128"
target triple = "x86_64-pc-linux-gnu"

%struct.AVRational = type { i32, i32 }
%struct.SideDataMap = type { i32, i32 }
%struct.AVFrameSideData = type { i32, ptr, i64, ptr, ptr }
%struct.AVBufferRef = type { ptr, ptr, i64 }
%struct.AVPacketSideData = type { ptr, i64, i32 }
%struct.AVStereo3D = type { i32, i32, i32, i32, i32, %struct.AVRational, %struct.AVRational }

; Function Attrs: nounwind uwtable
define internal i32 @side_data_stereo3d_merge(ptr noundef %0, ptr noundef %1) #0 {
  %3 = alloca i32, align 4
  %4 = alloca ptr, align 8
  %5 = alloca ptr, align 8
  %6 = alloca ptr, align 8
  %7 = alloca ptr, align 8
  %8 = alloca i32, align 4
  %9 = alloca i32, align 4
  store ptr %0, ptr %4, align 8, !tbaa !74
  store ptr %1, ptr %5, align 8, !tbaa !216
  call void @llvm.lifetime.start.p0(i64 8, ptr %6) #11
  call void @llvm.lifetime.start.p0(i64 8, ptr %7) #11
  call void @llvm.lifetime.start.p0(i64 4, ptr %8) #11
  %10 = load ptr, ptr %4, align 8, !tbaa !74
  %11 = getelementptr inbounds nuw %struct.AVFrameSideData, ptr %10, i32 0, i32 4
  %12 = call i32 @av_buffer_make_writable(ptr noundef %11)
  store i32 %12, ptr %8, align 4, !tbaa !41
  %13 = load i32, ptr %8, align 4, !tbaa !41
  %14 = icmp slt i32 %13, 0
  br i1 %14, label %15, label %17

15:                                               ; preds = %2
  %16 = load i32, ptr %8, align 4, !tbaa !41
  store i32 %16, ptr %3, align 4
  store i32 1, ptr %9, align 4
  br label %97

17:                                               ; preds = %2
  %18 = load ptr, ptr %4, align 8, !tbaa !74
  %19 = getelementptr inbounds nuw %struct.AVFrameSideData, ptr %18, i32 0, i32 4
  %20 = load ptr, ptr %19, align 8, !tbaa !324
  %21 = getelementptr inbounds nuw %struct.AVBufferRef, ptr %20, i32 0, i32 1
  %22 = load ptr, ptr %21, align 8, !tbaa !152
  %23 = load ptr, ptr %4, align 8, !tbaa !74
  %24 = getelementptr inbounds nuw %struct.AVFrameSideData, ptr %23, i32 0, i32 1
  store ptr %22, ptr %24, align 8, !tbaa !78
  %25 = load ptr, ptr %4, align 8, !tbaa !74
  %26 = getelementptr inbounds nuw %struct.AVFrameSideData, ptr %25, i32 0, i32 1
  %27 = load ptr, ptr %26, align 8, !tbaa !78
  store ptr %27, ptr %7, align 8, !tbaa !325
  %28 = load ptr, ptr %5, align 8, !tbaa !216
  %29 = getelementptr inbounds nuw %struct.AVPacketSideData, ptr %28, i32 0, i32 0
  %30 = load ptr, ptr %29, align 8, !tbaa !231
  store ptr %30, ptr %6, align 8, !tbaa !325
  %31 = load ptr, ptr %7, align 8, !tbaa !325
  %32 = getelementptr inbounds nuw %struct.AVStereo3D, ptr %31, i32 0, i32 0
  %33 = load i32, ptr %32, align 4, !tbaa !327
  %34 = icmp eq i32 %33, 8
  br i1 %34, label %35, label %41

35:                                               ; preds = %17
  %36 = load ptr, ptr %6, align 8, !tbaa !325
  %37 = getelementptr inbounds nuw %struct.AVStereo3D, ptr %36, i32 0, i32 0
  %38 = load i32, ptr %37, align 4, !tbaa !327
  %39 = load ptr, ptr %7, align 8, !tbaa !325
  %40 = getelementptr inbounds nuw %struct.AVStereo3D, ptr %39, i32 0, i32 0
  store i32 %38, ptr %40, align 4, !tbaa !327
  br label %41

41:                                               ; preds = %35, %17
  %42 = load ptr, ptr %7, align 8, !tbaa !325
  %43 = getelementptr inbounds nuw %struct.AVStereo3D, ptr %42, i32 0, i32 2
  %44 = load i32, ptr %43, align 4, !tbaa !329
  %45 = icmp eq i32 %44, 3
  br i1 %45, label %46, label %52

46:                                               ; preds = %41
  %47 = load ptr, ptr %6, align 8, !tbaa !325
  %48 = getelementptr inbounds nuw %struct.AVStereo3D, ptr %47, i32 0, i32 2
  %49 = load i32, ptr %48, align 4, !tbaa !329
  %50 = load ptr, ptr %7, align 8, !tbaa !325
  %51 = getelementptr inbounds nuw %struct.AVStereo3D, ptr %50, i32 0, i32 2
  store i32 %49, ptr %51, align 4, !tbaa !329
  br label %52

52:                                               ; preds = %46, %41
  %53 = load ptr, ptr %7, align 8, !tbaa !325
  %54 = getelementptr inbounds nuw %struct.AVStereo3D, ptr %53, i32 0, i32 3
  %55 = load i32, ptr %54, align 4, !tbaa !330
  %56 = icmp eq i32 %55, 0
  br i1 %56, label %57, label %63

57:                                               ; preds = %52
  %58 = load ptr, ptr %6, align 8, !tbaa !325
  %59 = getelementptr inbounds nuw %struct.AVStereo3D, ptr %58, i32 0, i32 3
  %60 = load i32, ptr %59, align 4, !tbaa !330
  %61 = load ptr, ptr %7, align 8, !tbaa !325
  %62 = getelementptr inbounds nuw %struct.AVStereo3D, ptr %61, i32 0, i32 3
  store i32 %60, ptr %62, align 4, !tbaa !330
  br label %63

63:                                               ; preds = %57, %52
  %64 = load ptr, ptr %7, align 8, !tbaa !325
  %65 = getelementptr inbounds nuw %struct.AVStereo3D, ptr %64, i32 0, i32 4
  %66 = load i32, ptr %65, align 4, !tbaa !331
  %67 = icmp ne i32 %66, 0
  br i1 %67, label %74, label %68

68:                                               ; preds = %63
  %69 = load ptr, ptr %6, align 8, !tbaa !325
  %70 = getelementptr inbounds nuw %struct.AVStereo3D, ptr %69, i32 0, i32 4
  %71 = load i32, ptr %70, align 4, !tbaa !331
  %72 = load ptr, ptr %7, align 8, !tbaa !325
  %73 = getelementptr inbounds nuw %struct.AVStereo3D, ptr %72, i32 0, i32 4
  store i32 %71, ptr %73, align 4, !tbaa !331
  br label %74

74:                                               ; preds = %68, %63
  %75 = load ptr, ptr %7, align 8, !tbaa !325
  %76 = getelementptr inbounds nuw %struct.AVStereo3D, ptr %75, i32 0, i32 5
  %77 = getelementptr inbounds nuw %struct.AVRational, ptr %76, i32 0, i32 0
  %78 = load i32, ptr %77, align 4, !tbaa !332
  %79 = icmp ne i32 %78, 0
  br i1 %79, label %85, label %80

80:                                               ; preds = %74
  %81 = load ptr, ptr %7, align 8, !tbaa !325
  %82 = getelementptr inbounds nuw %struct.AVStereo3D, ptr %81, i32 0, i32 5
  %83 = load ptr, ptr %6, align 8, !tbaa !325
  %84 = getelementptr inbounds nuw %struct.AVStereo3D, ptr %83, i32 0, i32 5
  call void @llvm.memcpy.p0.p0.i64(ptr align 4 %82, ptr align 4 %84, i64 8, i1 false), !tbaa.struct !242
  br label %85

85:                                               ; preds = %80, %74
  %86 = load ptr, ptr %7, align 8, !tbaa !325
  %87 = getelementptr inbounds nuw %struct.AVStereo3D, ptr %86, i32 0, i32 6
  %88 = getelementptr inbounds nuw %struct.AVRational, ptr %87, i32 0, i32 0
  %89 = load i32, ptr %88, align 4, !tbaa !333
  %90 = icmp ne i32 %89, 0
  br i1 %90, label %96, label %91

91:                                               ; preds = %85
  %92 = load ptr, ptr %7, align 8, !tbaa !325
  %93 = getelementptr inbounds nuw %struct.AVStereo3D, ptr %92, i32 0, i32 6
  %94 = load ptr, ptr %6, align 8, !tbaa !325
  %95 = getelementptr inbounds nuw %struct.AVStereo3D, ptr %94, i32 0, i32 6
  call void @llvm.memcpy.p0.p0.i64(ptr align 4 %93, ptr align 4 %95, i64 8, i1 false), !tbaa.struct !242
  br label %96

96:                                               ; preds = %91, %85
  store i32 0, ptr %3, align 4
  store i32 1, ptr %9, align 4
  br label %97

97:                                               ; preds = %96, %15
  call void @llvm.lifetime.end.p0(i64 4, ptr %8) #11
  call void @llvm.lifetime.end.p0(i64 8, ptr %7) #11
  call void @llvm.lifetime.end.p0(i64 8, ptr %6) #11
  %98 = load i32, ptr %3, align 4
  ret i32 %98
}

; Function Attrs: nounwind uwtable
define internal ptr @packet_side_data_get(ptr noundef %0, i32 noundef %1, i32 noundef %2) #0 {
  %4 = alloca ptr, align 8
  %5 = alloca ptr, align 8
  %6 = alloca i32, align 4
  %7 = alloca i32, align 4
  %8 = alloca i32, align 4
  %9 = alloca i32, align 4
  store ptr %0, ptr %5, align 8, !tbaa !216
  store i32 %1, ptr %6, align 4, !tbaa !41
  store i32 %2, ptr %7, align 4, !tbaa !41
  call void @llvm.lifetime.start.p0(i64 4, ptr %8) #11
  store i32 0, ptr %8, align 4, !tbaa !41
  br label %10

10:                                               ; preds = %30, %3
  %11 = load i32, ptr %8, align 4, !tbaa !41
  %12 = load i32, ptr %6, align 4, !tbaa !41
  %13 = icmp slt i32 %11, %12
  br i1 %13, label %15, label %14

14:                                               ; preds = %10
  store i32 2, ptr %9, align 4
  br label %33

15:                                               ; preds = %10
  %16 = load ptr, ptr %5, align 8, !tbaa !216
  %17 = load i32, ptr %8, align 4, !tbaa !41
  %18 = sext i32 %17 to i64
  %19 = getelementptr inbounds %struct.AVPacketSideData, ptr %16, i64 %18
  %20 = getelementptr inbounds nuw %struct.AVPacketSideData, ptr %19, i32 0, i32 2
  %21 = load i32, ptr %20, align 8, !tbaa !217
  %22 = load i32, ptr %7, align 4, !tbaa !41
  %23 = icmp eq i32 %21, %22
  br i1 %23, label %24, label %29

24:                                               ; preds = %15
  %25 = load ptr, ptr %5, align 8, !tbaa !216
  %26 = load i32, ptr %8, align 4, !tbaa !41
  %27 = sext i32 %26 to i64
  %28 = getelementptr inbounds %struct.AVPacketSideData, ptr %25, i64 %27
  store ptr %28, ptr %4, align 8
  store i32 1, ptr %9, align 4
  br label %33

29:                                               ; preds = %15
  br label %30

30:                                               ; preds = %29
  %31 = load i32, ptr %8, align 4, !tbaa !41
  %32 = add nsw i32 %31, 1
  store i32 %32, ptr %8, align 4, !tbaa !41
  br label %10, !llvm.loop !219

33:                                               ; preds = %24, %14
  call void @llvm.lifetime.end.p0(i64 4, ptr %8) #11
  %34 = load i32, ptr %9, align 4
  switch i32 %34, label %38 [
    i32 2, label %35
    i32 1, label %36
  ]

35:                                               ; preds = %33
  store ptr null, ptr %4, align 8
  br label %36

36:                                               ; preds = %35, %33
  %37 = load ptr, ptr %4, align 8
  ret ptr %37

38:                                               ; preds = %33
  unreachable
}

; Function Attrs: nounwind uwtable
define internal i32 @side_data_map(ptr noundef %0, ptr noundef %1, i32 noundef %2, ptr noundef %3) #0 {
  %5 = alloca i32, align 4
  %6 = alloca ptr, align 8
  %7 = alloca ptr, align 8
  %8 = alloca i32, align 4
  %9 = alloca ptr, align 8
  %10 = alloca i32, align 4
  %11 = alloca i32, align 4
  %12 = alloca i32, align 4
  %13 = alloca i32, align 4
  %14 = alloca ptr, align 8
  %15 = alloca ptr, align 8
  %16 = alloca i32, align 4
  store ptr %0, ptr %6, align 8, !tbaa !51
  store ptr %1, ptr %7, align 8, !tbaa !216
  store i32 %2, ptr %8, align 4, !tbaa !41
  store ptr %3, ptr %9, align 8, !tbaa !225
  call void @llvm.lifetime.start.p0(i64 4, ptr %10) #11
  store i32 0, ptr %10, align 4, !tbaa !41
  br label %17

17:                                               ; preds = %91, %4
  %18 = load ptr, ptr %9, align 8, !tbaa !225
  %19 = load i32, ptr %10, align 4, !tbaa !41
  %20 = sext i32 %19 to i64
  %21 = getelementptr inbounds %struct.SideDataMap, ptr %18, i64 %20
  %22 = getelementptr inbounds nuw %struct.SideDataMap, ptr %21, i32 0, i32 0
  %23 = load i32, ptr %22, align 4, !tbaa !227
  %24 = icmp ult i32 %23, 38
  br i1 %24, label %26, label %25

25:                                               ; preds = %17
  store i32 2, ptr %11, align 4
  br label %94

26:                                               ; preds = %17
  call void @llvm.lifetime.start.p0(i64 4, ptr %12) #11
  %27 = load ptr, ptr %9, align 8, !tbaa !225
  %28 = load i32, ptr %10, align 4, !tbaa !41
  %29 = sext i32 %28 to i64
  %30 = getelementptr inbounds %struct.SideDataMap, ptr %27, i64 %29
  %31 = getelementptr inbounds nuw %struct.SideDataMap, ptr %30, i32 0, i32 0
  %32 = load i32, ptr %31, align 4, !tbaa !227
  store i32 %32, ptr %12, align 4, !tbaa !41
  call void @llvm.lifetime.start.p0(i64 4, ptr %13) #11
  %33 = load ptr, ptr %9, align 8, !tbaa !225
  %34 = load i32, ptr %10, align 4, !tbaa !41
  %35 = sext i32 %34 to i64
  %36 = getelementptr inbounds %struct.SideDataMap, ptr %33, i64 %35
  %37 = getelementptr inbounds nuw %struct.SideDataMap, ptr %36, i32 0, i32 1
  %38 = load i32, ptr %37, align 4, !tbaa !229
  store i32 %38, ptr %13, align 4, !tbaa !41
  call void @llvm.lifetime.start.p0(i64 8, ptr %14) #11
  call void @llvm.lifetime.start.p0(i64 8, ptr %15) #11
  %39 = load ptr, ptr %7, align 8, !tbaa !216
  %40 = load i32, ptr %8, align 4, !tbaa !41
  %41 = load i32, ptr %12, align 4, !tbaa !41
  %42 = call ptr @packet_side_data_get(ptr noundef %39, i32 noundef %40, i32 noundef %41)
  store ptr %42, ptr %14, align 8, !tbaa !216
  %43 = load ptr, ptr %14, align 8, !tbaa !216
  %44 = icmp ne ptr %43, null
  br i1 %44, label %46, label %45

45:                                               ; preds = %26
  store i32 4, ptr %11, align 4
  br label %88

46:                                               ; preds = %26
  %47 = load ptr, ptr %6, align 8, !tbaa !51
  %48 = load i32, ptr %13, align 4, !tbaa !41
  %49 = call ptr @av_frame_get_side_data(ptr noundef %47, i32 noundef %48)
  store ptr %49, ptr %15, align 8, !tbaa !74
  %50 = load ptr, ptr %15, align 8, !tbaa !74
  %51 = icmp ne ptr %50, null
  br i1 %51, label %52, label %68

52:                                               ; preds = %46
  %53 = load i32, ptr %13, align 4, !tbaa !41
  %54 = icmp eq i32 %53, 2
  br i1 %54, label %55, label %67

55:                                               ; preds = %52
  call void @llvm.lifetime.start.p0(i64 4, ptr %16) #11
  %56 = load ptr, ptr %15, align 8, !tbaa !74
  %57 = load ptr, ptr %14, align 8, !tbaa !216
  %58 = call i32 @side_data_stereo3d_merge(ptr noundef %56, ptr noundef %57)
  store i32 %58, ptr %16, align 4, !tbaa !41
  %59 = load i32, ptr %16, align 4, !tbaa !41
  %60 = icmp slt i32 %59, 0
  br i1 %60, label %61, label %63

61:                                               ; preds = %55
  %62 = load i32, ptr %16, align 4, !tbaa !41
  store i32 %62, ptr %5, align 4
  store i32 1, ptr %11, align 4
  br label %64

63:                                               ; preds = %55
  store i32 0, ptr %11, align 4
  br label %64

64:                                               ; preds = %63, %61
  call void @llvm.lifetime.end.p0(i64 4, ptr %16) #11
  %65 = load i32, ptr %11, align 4
  switch i32 %65, label %88 [
    i32 0, label %66
  ]

66:                                               ; preds = %64
  br label %67

67:                                               ; preds = %66, %52
  store i32 4, ptr %11, align 4
  br label %88

68:                                               ; preds = %46
  %69 = load ptr, ptr %6, align 8, !tbaa !51
  %70 = load i32, ptr %13, align 4, !tbaa !41
  %71 = load ptr, ptr %14, align 8, !tbaa !216
  %72 = getelementptr inbounds nuw %struct.AVPacketSideData, ptr %71, i32 0, i32 1
  %73 = load i64, ptr %72, align 8, !tbaa !230
  %74 = call ptr @av_frame_new_side_data(ptr noundef %69, i32 noundef %70, i64 noundef %73)
  store ptr %74, ptr %15, align 8, !tbaa !74
  %75 = load ptr, ptr %15, align 8, !tbaa !74
  %76 = icmp ne ptr %75, null
  br i1 %76, label %78, label %77

77:                                               ; preds = %68
  store i32 -12, ptr %5, align 4
  store i32 1, ptr %11, align 4
  br label %88

78:                                               ; preds = %68
  %79 = load ptr, ptr %15, align 8, !tbaa !74
  %80 = getelementptr inbounds nuw %struct.AVFrameSideData, ptr %79, i32 0, i32 1
  %81 = load ptr, ptr %80, align 8, !tbaa !78
  %82 = load ptr, ptr %14, align 8, !tbaa !216
  %83 = getelementptr inbounds nuw %struct.AVPacketSideData, ptr %82, i32 0, i32 0
  %84 = load ptr, ptr %83, align 8, !tbaa !231
  %85 = load ptr, ptr %14, align 8, !tbaa !216
  %86 = getelementptr inbounds nuw %struct.AVPacketSideData, ptr %85, i32 0, i32 1
  %87 = load i64, ptr %86, align 8, !tbaa !230
  call void @llvm.memcpy.p0.p0.i64(ptr align 1 %81, ptr align 1 %84, i64 %87, i1 false)
  store i32 0, ptr %11, align 4
  br label %88

88:                                               ; preds = %78, %77, %67, %64, %45
  call void @llvm.lifetime.end.p0(i64 8, ptr %15) #11
  call void @llvm.lifetime.end.p0(i64 8, ptr %14) #11
  call void @llvm.lifetime.end.p0(i64 4, ptr %13) #11
  call void @llvm.lifetime.end.p0(i64 4, ptr %12) #11
  %89 = load i32, ptr %11, align 4
  switch i32 %89, label %94 [
    i32 0, label %90
    i32 4, label %91
  ]

90:                                               ; preds = %88
  br label %91

91:                                               ; preds = %90, %88
  %92 = load i32, ptr %10, align 4, !tbaa !41
  %93 = add nsw i32 %92, 1
  store i32 %93, ptr %10, align 4, !tbaa !41
  br label %17, !llvm.loop !232

94:                                               ; preds = %88, %25
  call void @llvm.lifetime.end.p0(i64 4, ptr %10) #11
  %95 = load i32, ptr %11, align 4
  switch i32 %95, label %99 [
    i32 2, label %96
    i32 1, label %97
  ]

96:                                               ; preds = %94
  store i32 0, ptr %5, align 4
  br label %97

97:                                               ; preds = %96, %94
  %98 = load i32, ptr %5, align 4
  ret i32 %98

99:                                               ; preds = %94
  unreachable
}