; Function Attrs: nounwind uwtable
define internal fastcc range(i32 -2147483648, 1) i32 @side_data_map(ptr noundef %0, ptr noundef readonly captures(none) %1, i32 noundef %2, ptr noundef readonly captures(none) %3) unnamed_addr #0 {
  %5 = load i32, ptr %3, align 4, !tbaa !196
  %6 = icmp ugt i32 %5, 37
  br i1 %6, label %side_data_stereo3d_merge.exit, label %.lr.ph

.lr.ph:                                           ; preds = %4
  %.not11.i = icmp sgt i32 %2, 0
  %wide.trip.count.i = zext nneg i32 %2 to i64
  br i1 %.not11.i, label %.lr.ph.preheader.i.us, label %side_data_stereo3d_merge.exit

.lr.ph.preheader.i.us:                            ; preds = %.lr.ph, %packet_side_data_get.exit.thread.us
  %indvars.iv = phi i64 [ %indvars.iv.next, %packet_side_data_get.exit.thread.us ], [ 0, %.lr.ph ]
  %7 = phi i32 [ %74, %packet_side_data_get.exit.thread.us ], [ %5, %.lr.ph ]
  %8 = getelementptr inbounds nuw %struct.SideDataMap, ptr %3, i64 %indvars.iv, i32 1
  %9 = load i32, ptr %8, align 4, !tbaa !198
  br label %.lr.ph.i.us

.lr.ph.i.us:                                      ; preds = %14, %.lr.ph.preheader.i.us
  %indvars.iv.i.us = phi i64 [ 0, %.lr.ph.preheader.i.us ], [ %indvars.iv.next.i.us, %14 ]
  %10 = getelementptr inbounds nuw %struct.AVPacketSideData, ptr %1, i64 %indvars.iv.i.us
  %11 = getelementptr inbounds nuw i8, ptr %10, i64 16
  %12 = load i32, ptr %11, align 8, !tbaa !189
  %13 = icmp eq i32 %12, %7
  br i1 %13, label %packet_side_data_get.exit.us, label %14

14:                                               ; preds = %.lr.ph.i.us
  %indvars.iv.next.i.us = add nuw nsw i64 %indvars.iv.i.us, 1
  %exitcond.not.i.us = icmp eq i64 %indvars.iv.next.i.us, %wide.trip.count.i
  br i1 %exitcond.not.i.us, label %packet_side_data_get.exit.thread.us, label %.lr.ph.i.us, !llvm.loop !188

packet_side_data_get.exit.us:                     ; preds = %.lr.ph.i.us
  %15 = tail call ptr @av_frame_get_side_data(ptr noundef %0, i32 noundef %9) #10
  %.not38.us = icmp eq ptr %15, null
  br i1 %.not38.us, label %64, label %16

16:                                               ; preds = %packet_side_data_get.exit.us
  %17 = icmp eq i32 %9, 2
  br i1 %17, label %18, label %packet_side_data_get.exit.thread.us

18:                                               ; preds = %16
  %19 = getelementptr inbounds nuw i8, ptr %15, i64 32
  %20 = tail call i32 @av_buffer_make_writable(ptr noundef nonnull %19) #10
  %21 = icmp slt i32 %20, 0
  br i1 %21, label %side_data_stereo3d_merge.exit, label %22

22:                                               ; preds = %18
  %23 = load ptr, ptr %19, align 8, !tbaa !199
  %24 = getelementptr inbounds nuw i8, ptr %23, i64 8
  %25 = load ptr, ptr %24, align 8, !tbaa !140
  %26 = getelementptr inbounds nuw i8, ptr %15, i64 8
  store ptr %25, ptr %26, align 8, !tbaa !81
  %27 = load ptr, ptr %10, align 8, !tbaa !200
  %28 = load i32, ptr %25, align 4, !tbaa !201
  %29 = icmp eq i32 %28, 8
  br i1 %29, label %30, label %32

30:                                               ; preds = %22
  %31 = load i32, ptr %27, align 4, !tbaa !201
  store i32 %31, ptr %25, align 4, !tbaa !201
  br label %32

32:                                               ; preds = %30, %22
  %33 = getelementptr inbounds nuw i8, ptr %25, i64 8
  %34 = load i32, ptr %33, align 4, !tbaa !203
  %35 = icmp eq i32 %34, 3
  br i1 %35, label %36, label %39

36:                                               ; preds = %32
  %37 = getelementptr inbounds nuw i8, ptr %27, i64 8
  %38 = load i32, ptr %37, align 4, !tbaa !203
  store i32 %38, ptr %33, align 4, !tbaa !203
  br label %39

39:                                               ; preds = %36, %32
  %40 = getelementptr inbounds nuw i8, ptr %25, i64 12
  %41 = load i32, ptr %40, align 4, !tbaa !204
  %42 = icmp eq i32 %41, 0
  br i1 %42, label %43, label %46

43:                                               ; preds = %39
  %44 = getelementptr inbounds nuw i8, ptr %27, i64 12
  %45 = load i32, ptr %44, align 4, !tbaa !204
  store i32 %45, ptr %40, align 4, !tbaa !204
  br label %46

46:                                               ; preds = %43, %39
  %47 = getelementptr inbounds nuw i8, ptr %25, i64 16
  %48 = load i32, ptr %47, align 4, !tbaa !205
  %.not.i.us = icmp eq i32 %48, 0
  br i1 %.not.i.us, label %49, label %52

49:                                               ; preds = %46
  %50 = getelementptr inbounds nuw i8, ptr %27, i64 16
  %51 = load i32, ptr %50, align 4, !tbaa !205
  store i32 %51, ptr %47, align 4, !tbaa !205
  br label %52

52:                                               ; preds = %49, %46
  %53 = getelementptr inbounds nuw i8, ptr %25, i64 20
  %54 = load i32, ptr %53, align 4, !tbaa !206
  %.not26.i.us = icmp eq i32 %54, 0
  br i1 %.not26.i.us, label %55, label %58

55:                                               ; preds = %52
  %56 = getelementptr inbounds nuw i8, ptr %27, i64 20
  %57 = load i64, ptr %56, align 4
  store i64 %57, ptr %53, align 4
  br label %58

58:                                               ; preds = %55, %52
  %59 = getelementptr inbounds nuw i8, ptr %25, i64 28
  %60 = load i32, ptr %59, align 4, !tbaa !207
  %.not27.i.us = icmp eq i32 %60, 0
  br i1 %.not27.i.us, label %61, label %packet_side_data_get.exit.thread.us

61:                                               ; preds = %58
  %62 = getelementptr inbounds nuw i8, ptr %27, i64 28
  %63 = load i64, ptr %62, align 4
  store i64 %63, ptr %59, align 4
  br label %packet_side_data_get.exit.thread.us

64:                                               ; preds = %packet_side_data_get.exit.us
  %65 = getelementptr inbounds nuw i8, ptr %10, i64 8
  %66 = load i64, ptr %65, align 8, !tbaa !208
  %67 = tail call ptr @av_frame_new_side_data(ptr noundef %0, i32 noundef %9, i64 noundef %66) #10
  %.not39.us = icmp eq ptr %67, null
  br i1 %.not39.us, label %side_data_stereo3d_merge.exit, label %68

68:                                               ; preds = %64
  %69 = getelementptr inbounds nuw i8, ptr %67, i64 8
  %70 = load ptr, ptr %69, align 8, !tbaa !81
  %71 = load ptr, ptr %10, align 8, !tbaa !200
  %72 = load i64, ptr %65, align 8, !tbaa !208
  tail call void @llvm.memcpy.p0.p0.i64(ptr align 1 %70, ptr align 1 %71, i64 %72, i1 false)
  br label %packet_side_data_get.exit.thread.us

packet_side_data_get.exit.thread.us:              ; preds = %14, %68, %61, %58, %16
  %indvars.iv.next = add nuw nsw i64 %indvars.iv, 1
  %73 = getelementptr inbounds nuw %struct.SideDataMap, ptr %3, i64 %indvars.iv.next
  %74 = load i32, ptr %73, align 4, !tbaa !196
  %75 = icmp ugt i32 %74, 37
  br i1 %75, label %side_data_stereo3d_merge.exit, label %.lr.ph.preheader.i.us, !llvm.loop !209

side_data_stereo3d_merge.exit:                    ; preds = %packet_side_data_get.exit.thread.us, %64, %18, %.lr.ph, %4
  %spec.select = phi i32 [ 0, %4 ], [ 0, %.lr.ph ], [ %20, %18 ], [ -12, %64 ], [ 0, %packet_side_data_get.exit.thread.us ]
  ret i32 %spec.select
}